ARM GAS  C:\Users\ASUS\AppData\Local\Temp\ccNrKhPv.s 			page 1


   1              		.cpu cortex-m3
   2              		.arch armv7-m
   3              		.fpu softvfp
   4              		.eabi_attribute 20, 1
   5              		.eabi_attribute 21, 1
   6              		.eabi_attribute 23, 3
   7              		.eabi_attribute 24, 1
   8              		.eabi_attribute 25, 1
   9              		.eabi_attribute 26, 1
  10              		.eabi_attribute 30, 1
  11              		.eabi_attribute 34, 1
  12              		.eabi_attribute 18, 4
  13              		.file	"main.c"
  14              		.text
  15              	.Ltext0:
  16              		.cfi_sections	.debug_frame
  17              		.file 1 "Core/Src/main.c"
  18              		.section	.text.PID_Init,"ax",%progbits
  19              		.align	1
  20              		.global	PID_Init
  21              		.syntax unified
  22              		.thumb
  23              		.thumb_func
  25              	PID_Init:
  26              	.LVL0:
  27              	.LFB65:
   1:Core/Src/main.c **** /* USER CODE BEGIN Header */
   2:Core/Src/main.c **** /**
   3:Core/Src/main.c ****   ******************************************************************************
   4:Core/Src/main.c ****   * @file           : main.c
   5:Core/Src/main.c ****   * @brief          : Main program body
   6:Core/Src/main.c ****   ******************************************************************************
   7:Core/Src/main.c ****   * @attention
   8:Core/Src/main.c ****   *
   9:Core/Src/main.c ****   * Copyright (c) 2026 STMicroelectronics.
  10:Core/Src/main.c ****   * All rights reserved.
  11:Core/Src/main.c ****   *
  12:Core/Src/main.c ****   * This software is licensed under terms that can be found in the LICENSE file
  13:Core/Src/main.c ****   * in the root directory of this software component.
  14:Core/Src/main.c ****   * If no LICENSE file comes with this software, it is provided AS-IS.
  15:Core/Src/main.c ****   *
  16:Core/Src/main.c ****   ******************************************************************************
  17:Core/Src/main.c ****   */
  18:Core/Src/main.c **** /* USER CODE END Header */
  19:Core/Src/main.c **** /* Includes ------------------------------------------------------------------*/
  20:Core/Src/main.c **** #include "main.h"
  21:Core/Src/main.c **** #include "gpio.h"
  22:Core/Src/main.c **** #include "bsp_dwt.h"
  23:Core/Src/main.c **** #include "motor_simulation.h"
  24:Core/Src/main.c **** 
  25:Core/Src/main.c **** /* Private includes ----------------------------------------------------------*/
  26:Core/Src/main.c **** /* USER CODE BEGIN Includes */
  27:Core/Src/main.c **** 
  28:Core/Src/main.c **** /* USER CODE END Includes */
  29:Core/Src/main.c **** 
  30:Core/Src/main.c **** /* Private typedef -----------------------------------------------------------*/
  31:Core/Src/main.c **** /* USER CODE BEGIN PTD */
ARM GAS  C:\Users\ASUS\AppData\Local\Temp\ccNrKhPv.s 			page 2


  32:Core/Src/main.c **** 
  33:Core/Src/main.c **** /* USER CODE END PTD */
  34:Core/Src/main.c **** 
  35:Core/Src/main.c **** /* Private define ------------------------------------------------------------*/
  36:Core/Src/main.c **** /* USER CODE BEGIN PD */
  37:Core/Src/main.c **** #define PID_OUTPUT_MAX 24.0f 
  38:Core/Src/main.c **** #define PID_OUTPUT_MIN -24.0f 
  39:Core/Src/main.c **** #define PID_INTEGRAL_MAX 24.0f 
  40:Core/Src/main.c **** #define PID_INTEGRAL_MIN -24.0f 
  41:Core/Src/main.c **** 
  42:Core/Src/main.c **** /* Private macro -------------------------------------------------------------*/
  43:Core/Src/main.c **** /* USER CODE BEGIN PM */
  44:Core/Src/main.c **** 
  45:Core/Src/main.c **** /* USER CODE END PM */
  46:Core/Src/main.c **** 
  47:Core/Src/main.c **** /* Private variables ---------------------------------------------------------*/
  48:Core/Src/main.c **** 
  49:Core/Src/main.c **** /* USER CODE BEGIN PV */
  50:Core/Src/main.c **** float velocityRef;
  51:Core/Src/main.c **** typedef struct {
  52:Core/Src/main.c ****     float kp;
  53:Core/Src/main.c ****     float ki;
  54:Core/Src/main.c ****     float kd;
  55:Core/Src/main.c ****     float integral;
  56:Core/Src/main.c ****     float prev_error;
  57:Core/Src/main.c **** 	  float Input;
  58:Core/Src/main.c **** 	  float Current;
  59:Core/Src/main.c **** } pid_t;
  60:Core/Src/main.c **** 
  61:Core/Src/main.c **** motorObject_t Motor;
  62:Core/Src/main.c **** pid_t PID;
  63:Core/Src/main.c **** uint32_t DWT_CNT;
  64:Core/Src/main.c **** float dt;
  65:Core/Src/main.c **** float t;
  66:Core/Src/main.c **** 
  67:Core/Src/main.c **** /* USER CODE END PV */
  68:Core/Src/main.c **** 
  69:Core/Src/main.c **** /* Private function prototypes -----------------------------------------------*/
  70:Core/Src/main.c **** void SystemClock_Config(void);
  71:Core/Src/main.c **** /* USER CODE BEGIN PFP */
  72:Core/Src/main.c **** void PID_Init(pid_t *p);
  73:Core/Src/main.c **** float PID_Calculate(float setpoint);
  74:Core/Src/main.c **** /* USER CODE END PFP */
  75:Core/Src/main.c **** 
  76:Core/Src/main.c **** /* Private user code ---------------------------------------------------------*/
  77:Core/Src/main.c **** /* USER CODE BEGIN 0 */
  78:Core/Src/main.c **** void PID_Init(pid_t *p)
  79:Core/Src/main.c **** {
  28              		.loc 1 79 1 view -0
  29              		.cfi_startproc
  30              		@ args = 0, pretend = 0, frame = 0
  31              		@ frame_needed = 0, uses_anonymous_args = 0
  32              		@ link register save eliminated.
  80:Core/Src/main.c ****     if (!p) return;
  33              		.loc 1 80 5 view .LVU1
  34              		.loc 1 80 8 is_stmt 0 view .LVU2
  35 0000 38B1     		cbz	r0, .L1
ARM GAS  C:\Users\ASUS\AppData\Local\Temp\ccNrKhPv.s 			page 3


  81:Core/Src/main.c ****     p->kp = 1.0f;
  36              		.loc 1 81 5 is_stmt 1 view .LVU3
  37              		.loc 1 81 11 is_stmt 0 view .LVU4
  38 0002 4FF07E52 		mov	r2, #1065353216
  39 0006 0260     		str	r2, [r0]	@ float
  82:Core/Src/main.c ****     p->ki = 0.0f;
  40              		.loc 1 82 5 is_stmt 1 view .LVU5
  41              		.loc 1 82 11 is_stmt 0 view .LVU6
  42 0008 0022     		movs	r2, #0
  43 000a 4260     		str	r2, [r0, #4]	@ float
  83:Core/Src/main.c ****     p->kd = 0.0f;
  44              		.loc 1 83 5 is_stmt 1 view .LVU7
  45              		.loc 1 83 11 is_stmt 0 view .LVU8
  46 000c 8260     		str	r2, [r0, #8]	@ float
  84:Core/Src/main.c ****     p->integral = 0.0f;
  47              		.loc 1 84 5 is_stmt 1 view .LVU9
  48              		.loc 1 84 17 is_stmt 0 view .LVU10
  49 000e C260     		str	r2, [r0, #12]	@ float
  85:Core/Src/main.c ****     p->prev_error = 0.0f;
  50              		.loc 1 85 5 is_stmt 1 view .LVU11
  51              		.loc 1 85 19 is_stmt 0 view .LVU12
  52 0010 0261     		str	r2, [r0, #16]	@ float
  53              	.L1:
  86:Core/Src/main.c **** }
  54              		.loc 1 86 1 view .LVU13
  55 0012 7047     		bx	lr
  56              		.cfi_endproc
  57              	.LFE65:
  59              		.global	__aeabi_fcmple
  60              		.global	__aeabi_fsub
  61              		.global	__aeabi_fmul
  62              		.global	__aeabi_fadd
  63              		.global	__aeabi_fcmpgt
  64              		.global	__aeabi_fcmplt
  65              		.global	__aeabi_fdiv
  66              		.section	.text.PID_Calculate,"ax",%progbits
  67              		.align	1
  68              		.global	PID_Calculate
  69              		.syntax unified
  70              		.thumb
  71              		.thumb_func
  73              	PID_Calculate:
  74              	.LVL1:
  75              	.LFB66:
  87:Core/Src/main.c **** 
  88:Core/Src/main.c **** float PID_Calculate(float setpoint)
  89:Core/Src/main.c **** {
  76              		.loc 1 89 1 is_stmt 1 view -0
  77              		.cfi_startproc
  78              		@ args = 0, pretend = 0, frame = 0
  79              		@ frame_needed = 0, uses_anonymous_args = 0
  80              		.loc 1 89 1 is_stmt 0 view .LVU15
  81 0000 2DE9F041 		push	{r4, r5, r6, r7, r8, lr}
  82              	.LCFI0:
  83              		.cfi_def_cfa_offset 24
  84              		.cfi_offset 4, -24
  85              		.cfi_offset 5, -20
ARM GAS  C:\Users\ASUS\AppData\Local\Temp\ccNrKhPv.s 			page 4


  86              		.cfi_offset 6, -16
  87              		.cfi_offset 7, -12
  88              		.cfi_offset 8, -8
  89              		.cfi_offset 14, -4
  90 0004 0446     		mov	r4, r0
  90:Core/Src/main.c ****     if (dt <= 0.0f) return 0.0f;
  91              		.loc 1 90 5 is_stmt 1 view .LVU16
  92              		.loc 1 90 12 is_stmt 0 view .LVU17
  93 0006 2D4B     		ldr	r3, .L15
  94 0008 1F68     		ldr	r7, [r3]	@ float
  95              		.loc 1 90 8 view .LVU18
  96 000a 0021     		movs	r1, #0
  97 000c 3846     		mov	r0, r7
  98              	.LVL2:
  99              		.loc 1 90 8 view .LVU19
 100 000e FFF7FEFF 		bl	__aeabi_fcmple
 101              	.LVL3:
 102 0012 0028     		cmp	r0, #0
 103 0014 4FD1     		bne	.L9
  91:Core/Src/main.c ****     float error = setpoint - Motor.MeasureVelocity;
 104              		.loc 1 91 5 is_stmt 1 view .LVU20
 105              		.loc 1 91 11 is_stmt 0 view .LVU21
 106 0016 2A4B     		ldr	r3, .L15+4
 107 0018 996A     		ldr	r1, [r3, #40]	@ float
 108 001a 2046     		mov	r0, r4
 109 001c FFF7FEFF 		bl	__aeabi_fsub
 110              	.LVL4:
 111 0020 0546     		mov	r5, r0
 112              	.LVL5:
  92:Core/Src/main.c ****     
  93:Core/Src/main.c ****     PID.integral += error * dt;
 113              		.loc 1 93 5 is_stmt 1 view .LVU22
 114              		.loc 1 93 8 is_stmt 0 view .LVU23
 115 0022 284E     		ldr	r6, .L15+8
 116 0024 F468     		ldr	r4, [r6, #12]	@ float
 117              	.LVL6:
 118              		.loc 1 93 27 view .LVU24
 119 0026 0146     		mov	r1, r0
 120 0028 3846     		mov	r0, r7
 121              	.LVL7:
 122              		.loc 1 93 27 view .LVU25
 123 002a FFF7FEFF 		bl	__aeabi_fmul
 124              	.LVL8:
 125              		.loc 1 93 27 view .LVU26
 126 002e 0146     		mov	r1, r0
 127              		.loc 1 93 18 view .LVU27
 128 0030 2046     		mov	r0, r4
 129 0032 FFF7FEFF 		bl	__aeabi_fadd
 130              	.LVL9:
 131 0036 0446     		mov	r4, r0
 132 0038 F060     		str	r0, [r6, #12]	@ float
  94:Core/Src/main.c ****     PID.integral = (PID.integral > PID_INTEGRAL_MAX) ? PID_INTEGRAL_MAX : 
 133              		.loc 1 94 5 is_stmt 1 view .LVU28
 134              		.loc 1 94 73 is_stmt 0 view .LVU29
 135 003a 2349     		ldr	r1, .L15+12
 136 003c FFF7FEFF 		bl	__aeabi_fcmpgt
 137              	.LVL10:
ARM GAS  C:\Users\ASUS\AppData\Local\Temp\ccNrKhPv.s 			page 5


 138 0040 30B9     		cbnz	r0, .L10
  95:Core/Src/main.c ****                    (PID.integral < PID_INTEGRAL_MIN) ? PID_INTEGRAL_MIN : PID.integral;
 139              		.loc 1 95 73 view .LVU30
 140 0042 2249     		ldr	r1, .L15+16
 141 0044 2046     		mov	r0, r4
 142 0046 FFF7FEFF 		bl	__aeabi_fcmplt
 143              	.LVL11:
 144 004a 10B1     		cbz	r0, .L5
 145 004c 1F4C     		ldr	r4, .L15+16
 146 004e 00E0     		b	.L5
 147              	.L10:
  94:Core/Src/main.c ****     PID.integral = (PID.integral > PID_INTEGRAL_MAX) ? PID_INTEGRAL_MAX : 
 148              		.loc 1 94 73 view .LVU31
 149 0050 1D4C     		ldr	r4, .L15+12
 150              	.L5:
  94:Core/Src/main.c ****     PID.integral = (PID.integral > PID_INTEGRAL_MAX) ? PID_INTEGRAL_MAX : 
 151              		.loc 1 94 18 discriminator 2 view .LVU32
 152 0052 1C4E     		ldr	r6, .L15+8
 153 0054 F460     		str	r4, [r6, #12]	@ float
  96:Core/Src/main.c ****     
  97:Core/Src/main.c ****     float derivative = (error - PID.prev_error) / dt;
 154              		.loc 1 97 5 is_stmt 1 discriminator 2 view .LVU33
 155              		.loc 1 97 31 is_stmt 0 discriminator 2 view .LVU34
 156 0056 3169     		ldr	r1, [r6, #16]	@ float
 157 0058 2846     		mov	r0, r5
 158 005a FFF7FEFF 		bl	__aeabi_fsub
 159              	.LVL12:
 160              		.loc 1 97 11 discriminator 2 view .LVU35
 161 005e 3946     		mov	r1, r7
 162 0060 FFF7FEFF 		bl	__aeabi_fdiv
 163              	.LVL13:
 164 0064 0746     		mov	r7, r0
 165              	.LVL14:
  98:Core/Src/main.c ****     
  99:Core/Src/main.c ****     float out = PID.kp * error + PID.ki * PID.integral + PID.kd * derivative;
 166              		.loc 1 99 5 is_stmt 1 discriminator 2 view .LVU36
 167              		.loc 1 99 24 is_stmt 0 discriminator 2 view .LVU37
 168 0066 2946     		mov	r1, r5
 169 0068 3068     		ldr	r0, [r6]	@ float
 170              	.LVL15:
 171              		.loc 1 99 24 discriminator 2 view .LVU38
 172 006a FFF7FEFF 		bl	__aeabi_fmul
 173              	.LVL16:
 174 006e 8046     		mov	r8, r0
 175              		.loc 1 99 41 discriminator 2 view .LVU39
 176 0070 2146     		mov	r1, r4
 177 0072 7068     		ldr	r0, [r6, #4]	@ float
 178 0074 FFF7FEFF 		bl	__aeabi_fmul
 179              	.LVL17:
 180 0078 0146     		mov	r1, r0
 181              		.loc 1 99 32 discriminator 2 view .LVU40
 182 007a 4046     		mov	r0, r8
 183 007c FFF7FEFF 		bl	__aeabi_fadd
 184              	.LVL18:
 185 0080 0446     		mov	r4, r0
 186              		.loc 1 99 65 discriminator 2 view .LVU41
 187 0082 3946     		mov	r1, r7
ARM GAS  C:\Users\ASUS\AppData\Local\Temp\ccNrKhPv.s 			page 6


 188 0084 B068     		ldr	r0, [r6, #8]	@ float
 189 0086 FFF7FEFF 		bl	__aeabi_fmul
 190              	.LVL19:
 191 008a 0146     		mov	r1, r0
 192              		.loc 1 99 11 discriminator 2 view .LVU42
 193 008c 2046     		mov	r0, r4
 194 008e FFF7FEFF 		bl	__aeabi_fadd
 195              	.LVL20:
 196 0092 0446     		mov	r4, r0
 197              	.LVL21:
 100:Core/Src/main.c ****     out = (out > PID_OUTPUT_MAX) ? PID_OUTPUT_MAX : 
 198              		.loc 1 100 5 is_stmt 1 discriminator 2 view .LVU43
 199              		.loc 1 100 51 is_stmt 0 discriminator 2 view .LVU44
 200 0094 0C49     		ldr	r1, .L15+12
 201 0096 FFF7FEFF 		bl	__aeabi_fcmpgt
 202              	.LVL22:
 203              		.loc 1 100 51 discriminator 2 view .LVU45
 204 009a 30B9     		cbnz	r0, .L11
 101:Core/Src/main.c ****           (out < PID_OUTPUT_MIN) ? PID_OUTPUT_MIN : out;
 205              		.loc 1 101 51 view .LVU46
 206 009c 0B49     		ldr	r1, .L15+16
 207 009e 2046     		mov	r0, r4
 208 00a0 FFF7FEFF 		bl	__aeabi_fcmplt
 209              	.LVL23:
 210 00a4 10B1     		cbz	r0, .L7
 211 00a6 094C     		ldr	r4, .L15+16
 212              	.LVL24:
 213              		.loc 1 101 51 view .LVU47
 214 00a8 00E0     		b	.L7
 215              	.LVL25:
 216              	.L11:
 100:Core/Src/main.c ****     out = (out > PID_OUTPUT_MAX) ? PID_OUTPUT_MAX : 
 217              		.loc 1 100 51 view .LVU48
 218 00aa 074C     		ldr	r4, .L15+12
 219              	.LVL26:
 220              	.L7:
 102:Core/Src/main.c ****     
 103:Core/Src/main.c ****     PID.prev_error = error;
 221              		.loc 1 103 5 is_stmt 1 discriminator 2 view .LVU49
 222              		.loc 1 103 20 is_stmt 0 discriminator 2 view .LVU50
 223 00ac 054B     		ldr	r3, .L15+8
 224 00ae 1D61     		str	r5, [r3, #16]	@ float
 104:Core/Src/main.c ****     return out;
 225              		.loc 1 104 5 is_stmt 1 discriminator 2 view .LVU51
 226              	.LVL27:
 227              	.L3:
 105:Core/Src/main.c **** }
 228              		.loc 1 105 1 is_stmt 0 view .LVU52
 229 00b0 2046     		mov	r0, r4
 230 00b2 BDE8F081 		pop	{r4, r5, r6, r7, r8, pc}
 231              	.LVL28:
 232              	.L9:
  90:Core/Src/main.c ****     float error = setpoint - Motor.MeasureVelocity;
 233              		.loc 1 90 28 view .LVU53
 234 00b6 0024     		movs	r4, #0
 235              	.LVL29:
  90:Core/Src/main.c ****     float error = setpoint - Motor.MeasureVelocity;
ARM GAS  C:\Users\ASUS\AppData\Local\Temp\ccNrKhPv.s 			page 7


 236              		.loc 1 90 28 view .LVU54
 237 00b8 FAE7     		b	.L3
 238              	.L16:
 239 00ba 00BF     		.align	2
 240              	.L15:
 241 00bc 00000000 		.word	dt
 242 00c0 00000000 		.word	Motor
 243 00c4 00000000 		.word	PID
 244 00c8 0000C041 		.word	1103101952
 245 00cc 0000C0C1 		.word	-1044381696
 246              		.cfi_endproc
 247              	.LFE66:
 249              		.section	.text.Error_Handler,"ax",%progbits
 250              		.align	1
 251              		.global	Error_Handler
 252              		.syntax unified
 253              		.thumb
 254              		.thumb_func
 256              	Error_Handler:
 257              	.LFB69:
 106:Core/Src/main.c **** /* USER CODE END 0 */
 107:Core/Src/main.c **** 
 108:Core/Src/main.c **** /**
 109:Core/Src/main.c ****   * @brief  The application entry point.
 110:Core/Src/main.c ****   * @retval int
 111:Core/Src/main.c ****   */
 112:Core/Src/main.c **** int main(void)
 113:Core/Src/main.c **** {
 114:Core/Src/main.c ****   /* USER CODE BEGIN 1 */
 115:Core/Src/main.c **** 
 116:Core/Src/main.c ****   /* USER CODE END 1 */
 117:Core/Src/main.c **** 
 118:Core/Src/main.c ****   HAL_Init();
 119:Core/Src/main.c **** 
 120:Core/Src/main.c ****   /* USER CODE BEGIN Init */
 121:Core/Src/main.c **** 
 122:Core/Src/main.c ****   /* USER CODE END Init */
 123:Core/Src/main.c **** 
 124:Core/Src/main.c ****   SystemClock_Config();
 125:Core/Src/main.c **** 
 126:Core/Src/main.c ****   /* USER CODE BEGIN SysInit */
 127:Core/Src/main.c **** 
 128:Core/Src/main.c ****   /* USER CODE END SysInit */
 129:Core/Src/main.c **** 
 130:Core/Src/main.c ****   MX_GPIO_Init();
 131:Core/Src/main.c ****   
 132:Core/Src/main.c ****   /* USER CODE BEGIN 2 */
 133:Core/Src/main.c ****   DWT_Init(72);
 134:Core/Src/main.c ****   Motor_Object_Init(&Motor);
 135:Core/Src/main.c ****   PID_Init(&PID);
 136:Core/Src/main.c ****   DWT_CNT = 0;
 137:Core/Src/main.c ****   dt = 0.0f;
 138:Core/Src/main.c ****   t = 0.0f;
 139:Core/Src/main.c ****   velocityRef = 0.0f;
 140:Core/Src/main.c ****   /* USER CODE END 2 */
 141:Core/Src/main.c **** 
 142:Core/Src/main.c ****   while (1)
ARM GAS  C:\Users\ASUS\AppData\Local\Temp\ccNrKhPv.s 			page 8


 143:Core/Src/main.c ****   {   
 144:Core/Src/main.c ****       dt = DWT_GetDeltaT(&DWT_CNT); 
 145:Core/Src/main.c ****       t += dt;
 146:Core/Src/main.c **** 
 147:Core/Src/main.c ****       PID.Current = Get_Motor_Current(&Motor);
 148:Core/Src/main.c ****       Motor.Velocity = Get_Motor_Velocity(&Motor);
 149:Core/Src/main.c ****       Motor.Angle = Get_Motor_Angle(&Motor);
 150:Core/Src/main.c ****       velocityRef = 10.0f;
 151:Core/Src/main.c ****       PID.Input = PID_Calculate(velocityRef);
 152:Core/Src/main.c **** 
 153:Core/Src/main.c ****       Motor_Simulation(&Motor,PID.Input, dt);
 154:Core/Src/main.c **** 
 155:Core/Src/main.c ****       /* USER CODE END WHILE */
 156:Core/Src/main.c **** 
 157:Core/Src/main.c ****       /* USER CODE BEGIN 3 */
 158:Core/Src/main.c ****       HAL_Delay(1);
 159:Core/Src/main.c ****   }
 160:Core/Src/main.c ****   /* USER CODE END 3 */
 161:Core/Src/main.c **** }
 162:Core/Src/main.c **** 
 163:Core/Src/main.c **** /**
 164:Core/Src/main.c ****   * @brief System Clock Configuration
 165:Core/Src/main.c ****   * @retval None
 166:Core/Src/main.c ****   */
 167:Core/Src/main.c **** void SystemClock_Config(void)
 168:Core/Src/main.c **** {
 169:Core/Src/main.c ****   RCC_OscInitTypeDef RCC_OscInitStruct = {0};
 170:Core/Src/main.c ****   RCC_ClkInitTypeDef RCC_ClkInitStruct = {0};
 171:Core/Src/main.c **** 
 172:Core/Src/main.c ****   RCC_OscInitStruct.OscillatorType = RCC_OSCILLATORTYPE_HSE;
 173:Core/Src/main.c ****   RCC_OscInitStruct.HSEState = RCC_HSE_ON;
 174:Core/Src/main.c ****   RCC_OscInitStruct.HSEPredivValue = RCC_HSE_PREDIV_DIV1;
 175:Core/Src/main.c ****   RCC_OscInitStruct.HSIState = RCC_HSI_ON;
 176:Core/Src/main.c ****   RCC_OscInitStruct.PLL.PLLState = RCC_PLL_ON;
 177:Core/Src/main.c ****   RCC_OscInitStruct.PLL.PLLSource = RCC_PLLSOURCE_HSE;
 178:Core/Src/main.c ****   RCC_OscInitStruct.PLL.PLLMUL = RCC_PLL_MUL9;
 179:Core/Src/main.c ****   if (HAL_RCC_OscConfig(&RCC_OscInitStruct) != HAL_OK)
 180:Core/Src/main.c ****   {
 181:Core/Src/main.c ****     Error_Handler();
 182:Core/Src/main.c ****   }
 183:Core/Src/main.c **** 
 184:Core/Src/main.c ****   RCC_ClkInitStruct.ClockType = RCC_CLOCKTYPE_HCLK|RCC_CLOCKTYPE_SYSCLK
 185:Core/Src/main.c ****                               |RCC_CLOCKTYPE_PCLK1|RCC_CLOCKTYPE_PCLK2;
 186:Core/Src/main.c ****   RCC_ClkInitStruct.SYSCLKSource = RCC_SYSCLKSOURCE_PLLCLK;
 187:Core/Src/main.c ****   RCC_ClkInitStruct.AHBCLKDivider = RCC_SYSCLK_DIV1;
 188:Core/Src/main.c ****   RCC_ClkInitStruct.APB1CLKDivider = RCC_HCLK_DIV2;
 189:Core/Src/main.c ****   RCC_ClkInitStruct.APB2CLKDivider = RCC_HCLK_DIV1;
 190:Core/Src/main.c **** 
 191:Core/Src/main.c ****   if (HAL_RCC_ClockConfig(&RCC_ClkInitStruct, FLASH_LATENCY_2) != HAL_OK)
 192:Core/Src/main.c ****   {
 193:Core/Src/main.c ****     Error_Handler();
 194:Core/Src/main.c ****   }
 195:Core/Src/main.c **** }
 196:Core/Src/main.c **** 
 197:Core/Src/main.c **** /* USER CODE BEGIN 4 */
 198:Core/Src/main.c **** 
 199:Core/Src/main.c **** /* USER CODE END 4 */
ARM GAS  C:\Users\ASUS\AppData\Local\Temp\ccNrKhPv.s 			page 9


 200:Core/Src/main.c **** 
 201:Core/Src/main.c **** /**
 202:Core/Src/main.c ****   * @brief  This function is executed in case of error occurrence.
 203:Core/Src/main.c ****   * @retval None
 204:Core/Src/main.c ****   */
 205:Core/Src/main.c **** void Error_Handler(void)
 206:Core/Src/main.c **** {
 258              		.loc 1 206 1 is_stmt 1 view -0
 259              		.cfi_startproc
 260              		@ Volatile: function does not return.
 261              		@ args = 0, pretend = 0, frame = 0
 262              		@ frame_needed = 0, uses_anonymous_args = 0
 263              		@ link register save eliminated.
 207:Core/Src/main.c ****   /* USER CODE BEGIN Error_Handler_Debug */
 208:Core/Src/main.c ****   __disable_irq();
 264              		.loc 1 208 3 view .LVU56
 265              	.LBB4:
 266              	.LBI4:
 267              		.file 2 "Drivers/CMSIS/Include/cmsis_gcc.h"
   1:Drivers/CMSIS/Include/cmsis_gcc.h **** /**************************************************************************//**
   2:Drivers/CMSIS/Include/cmsis_gcc.h ****  * @file     cmsis_gcc.h
   3:Drivers/CMSIS/Include/cmsis_gcc.h ****  * @brief    CMSIS compiler GCC header file
   4:Drivers/CMSIS/Include/cmsis_gcc.h ****  * @version  V5.0.4
   5:Drivers/CMSIS/Include/cmsis_gcc.h ****  * @date     09. April 2018
   6:Drivers/CMSIS/Include/cmsis_gcc.h ****  ******************************************************************************/
   7:Drivers/CMSIS/Include/cmsis_gcc.h **** /*
   8:Drivers/CMSIS/Include/cmsis_gcc.h ****  * Copyright (c) 2009-2018 Arm Limited. All rights reserved.
   9:Drivers/CMSIS/Include/cmsis_gcc.h ****  *
  10:Drivers/CMSIS/Include/cmsis_gcc.h ****  * SPDX-License-Identifier: Apache-2.0
  11:Drivers/CMSIS/Include/cmsis_gcc.h ****  *
  12:Drivers/CMSIS/Include/cmsis_gcc.h ****  * Licensed under the Apache License, Version 2.0 (the License); you may
  13:Drivers/CMSIS/Include/cmsis_gcc.h ****  * not use this file except in compliance with the License.
  14:Drivers/CMSIS/Include/cmsis_gcc.h ****  * You may obtain a copy of the License at
  15:Drivers/CMSIS/Include/cmsis_gcc.h ****  *
  16:Drivers/CMSIS/Include/cmsis_gcc.h ****  * www.apache.org/licenses/LICENSE-2.0
  17:Drivers/CMSIS/Include/cmsis_gcc.h ****  *
  18:Drivers/CMSIS/Include/cmsis_gcc.h ****  * Unless required by applicable law or agreed to in writing, software
  19:Drivers/CMSIS/Include/cmsis_gcc.h ****  * distributed under the License is distributed on an AS IS BASIS, WITHOUT
  20:Drivers/CMSIS/Include/cmsis_gcc.h ****  * WARRANTIES OR CONDITIONS OF ANY KIND, either express or implied.
  21:Drivers/CMSIS/Include/cmsis_gcc.h ****  * See the License for the specific language governing permissions and
  22:Drivers/CMSIS/Include/cmsis_gcc.h ****  * limitations under the License.
  23:Drivers/CMSIS/Include/cmsis_gcc.h ****  */
  24:Drivers/CMSIS/Include/cmsis_gcc.h **** 
  25:Drivers/CMSIS/Include/cmsis_gcc.h **** #ifndef __CMSIS_GCC_H
  26:Drivers/CMSIS/Include/cmsis_gcc.h **** #define __CMSIS_GCC_H
  27:Drivers/CMSIS/Include/cmsis_gcc.h **** 
  28:Drivers/CMSIS/Include/cmsis_gcc.h **** /* ignore some GCC warnings */
  29:Drivers/CMSIS/Include/cmsis_gcc.h **** #pragma GCC diagnostic push
  30:Drivers/CMSIS/Include/cmsis_gcc.h **** #pragma GCC diagnostic ignored "-Wsign-conversion"
  31:Drivers/CMSIS/Include/cmsis_gcc.h **** #pragma GCC diagnostic ignored "-Wconversion"
  32:Drivers/CMSIS/Include/cmsis_gcc.h **** #pragma GCC diagnostic ignored "-Wunused-parameter"
  33:Drivers/CMSIS/Include/cmsis_gcc.h **** 
  34:Drivers/CMSIS/Include/cmsis_gcc.h **** /* Fallback for __has_builtin */
  35:Drivers/CMSIS/Include/cmsis_gcc.h **** #ifndef __has_builtin
  36:Drivers/CMSIS/Include/cmsis_gcc.h ****   #define __has_builtin(x) (0)
  37:Drivers/CMSIS/Include/cmsis_gcc.h **** #endif
  38:Drivers/CMSIS/Include/cmsis_gcc.h **** 
ARM GAS  C:\Users\ASUS\AppData\Local\Temp\ccNrKhPv.s 			page 10


  39:Drivers/CMSIS/Include/cmsis_gcc.h **** /* CMSIS compiler specific defines */
  40:Drivers/CMSIS/Include/cmsis_gcc.h **** #ifndef   __ASM
  41:Drivers/CMSIS/Include/cmsis_gcc.h ****   #define __ASM                                  __asm
  42:Drivers/CMSIS/Include/cmsis_gcc.h **** #endif
  43:Drivers/CMSIS/Include/cmsis_gcc.h **** #ifndef   __INLINE
  44:Drivers/CMSIS/Include/cmsis_gcc.h ****   #define __INLINE                               inline
  45:Drivers/CMSIS/Include/cmsis_gcc.h **** #endif
  46:Drivers/CMSIS/Include/cmsis_gcc.h **** #ifndef   __STATIC_INLINE
  47:Drivers/CMSIS/Include/cmsis_gcc.h ****   #define __STATIC_INLINE                        static inline
  48:Drivers/CMSIS/Include/cmsis_gcc.h **** #endif
  49:Drivers/CMSIS/Include/cmsis_gcc.h **** #ifndef   __STATIC_FORCEINLINE                 
  50:Drivers/CMSIS/Include/cmsis_gcc.h ****   #define __STATIC_FORCEINLINE                   __attribute__((always_inline)) static inline
  51:Drivers/CMSIS/Include/cmsis_gcc.h **** #endif                                           
  52:Drivers/CMSIS/Include/cmsis_gcc.h **** #ifndef   __NO_RETURN
  53:Drivers/CMSIS/Include/cmsis_gcc.h ****   #define __NO_RETURN                            __attribute__((__noreturn__))
  54:Drivers/CMSIS/Include/cmsis_gcc.h **** #endif
  55:Drivers/CMSIS/Include/cmsis_gcc.h **** #ifndef   __USED
  56:Drivers/CMSIS/Include/cmsis_gcc.h ****   #define __USED                                 __attribute__((used))
  57:Drivers/CMSIS/Include/cmsis_gcc.h **** #endif
  58:Drivers/CMSIS/Include/cmsis_gcc.h **** #ifndef   __WEAK
  59:Drivers/CMSIS/Include/cmsis_gcc.h ****   #define __WEAK                                 __attribute__((weak))
  60:Drivers/CMSIS/Include/cmsis_gcc.h **** #endif
  61:Drivers/CMSIS/Include/cmsis_gcc.h **** #ifndef   __PACKED
  62:Drivers/CMSIS/Include/cmsis_gcc.h ****   #define __PACKED                               __attribute__((packed, aligned(1)))
  63:Drivers/CMSIS/Include/cmsis_gcc.h **** #endif
  64:Drivers/CMSIS/Include/cmsis_gcc.h **** #ifndef   __PACKED_STRUCT
  65:Drivers/CMSIS/Include/cmsis_gcc.h ****   #define __PACKED_STRUCT                        struct __attribute__((packed, aligned(1)))
  66:Drivers/CMSIS/Include/cmsis_gcc.h **** #endif
  67:Drivers/CMSIS/Include/cmsis_gcc.h **** #ifndef   __PACKED_UNION
  68:Drivers/CMSIS/Include/cmsis_gcc.h ****   #define __PACKED_UNION                         union __attribute__((packed, aligned(1)))
  69:Drivers/CMSIS/Include/cmsis_gcc.h **** #endif
  70:Drivers/CMSIS/Include/cmsis_gcc.h **** #ifndef   __UNALIGNED_UINT32        /* deprecated */
  71:Drivers/CMSIS/Include/cmsis_gcc.h ****   #pragma GCC diagnostic push
  72:Drivers/CMSIS/Include/cmsis_gcc.h ****   #pragma GCC diagnostic ignored "-Wpacked"
  73:Drivers/CMSIS/Include/cmsis_gcc.h ****   #pragma GCC diagnostic ignored "-Wattributes"
  74:Drivers/CMSIS/Include/cmsis_gcc.h ****   struct __attribute__((packed)) T_UINT32 { uint32_t v; };
  75:Drivers/CMSIS/Include/cmsis_gcc.h ****   #pragma GCC diagnostic pop
  76:Drivers/CMSIS/Include/cmsis_gcc.h ****   #define __UNALIGNED_UINT32(x)                  (((struct T_UINT32 *)(x))->v)
  77:Drivers/CMSIS/Include/cmsis_gcc.h **** #endif
  78:Drivers/CMSIS/Include/cmsis_gcc.h **** #ifndef   __UNALIGNED_UINT16_WRITE
  79:Drivers/CMSIS/Include/cmsis_gcc.h ****   #pragma GCC diagnostic push
  80:Drivers/CMSIS/Include/cmsis_gcc.h ****   #pragma GCC diagnostic ignored "-Wpacked"
  81:Drivers/CMSIS/Include/cmsis_gcc.h ****   #pragma GCC diagnostic ignored "-Wattributes"
  82:Drivers/CMSIS/Include/cmsis_gcc.h ****   __PACKED_STRUCT T_UINT16_WRITE { uint16_t v; };
  83:Drivers/CMSIS/Include/cmsis_gcc.h ****   #pragma GCC diagnostic pop
  84:Drivers/CMSIS/Include/cmsis_gcc.h ****   #define __UNALIGNED_UINT16_WRITE(addr, val)    (void)((((struct T_UINT16_WRITE *)(void *)(addr))-
  85:Drivers/CMSIS/Include/cmsis_gcc.h **** #endif
  86:Drivers/CMSIS/Include/cmsis_gcc.h **** #ifndef   __UNALIGNED_UINT16_READ
  87:Drivers/CMSIS/Include/cmsis_gcc.h ****   #pragma GCC diagnostic push
  88:Drivers/CMSIS/Include/cmsis_gcc.h ****   #pragma GCC diagnostic ignored "-Wpacked"
  89:Drivers/CMSIS/Include/cmsis_gcc.h ****   #pragma GCC diagnostic ignored "-Wattributes"
  90:Drivers/CMSIS/Include/cmsis_gcc.h ****   __PACKED_STRUCT T_UINT16_READ { uint16_t v; };
  91:Drivers/CMSIS/Include/cmsis_gcc.h ****   #pragma GCC diagnostic pop
  92:Drivers/CMSIS/Include/cmsis_gcc.h ****   #define __UNALIGNED_UINT16_READ(addr)          (((const struct T_UINT16_READ *)(const void *)(add
  93:Drivers/CMSIS/Include/cmsis_gcc.h **** #endif
  94:Drivers/CMSIS/Include/cmsis_gcc.h **** #ifndef   __UNALIGNED_UINT32_WRITE
  95:Drivers/CMSIS/Include/cmsis_gcc.h ****   #pragma GCC diagnostic push
ARM GAS  C:\Users\ASUS\AppData\Local\Temp\ccNrKhPv.s 			page 11


  96:Drivers/CMSIS/Include/cmsis_gcc.h ****   #pragma GCC diagnostic ignored "-Wpacked"
  97:Drivers/CMSIS/Include/cmsis_gcc.h ****   #pragma GCC diagnostic ignored "-Wattributes"
  98:Drivers/CMSIS/Include/cmsis_gcc.h ****   __PACKED_STRUCT T_UINT32_WRITE { uint32_t v; };
  99:Drivers/CMSIS/Include/cmsis_gcc.h ****   #pragma GCC diagnostic pop
 100:Drivers/CMSIS/Include/cmsis_gcc.h ****   #define __UNALIGNED_UINT32_WRITE(addr, val)    (void)((((struct T_UINT32_WRITE *)(void *)(addr))-
 101:Drivers/CMSIS/Include/cmsis_gcc.h **** #endif
 102:Drivers/CMSIS/Include/cmsis_gcc.h **** #ifndef   __UNALIGNED_UINT32_READ
 103:Drivers/CMSIS/Include/cmsis_gcc.h ****   #pragma GCC diagnostic push
 104:Drivers/CMSIS/Include/cmsis_gcc.h ****   #pragma GCC diagnostic ignored "-Wpacked"
 105:Drivers/CMSIS/Include/cmsis_gcc.h ****   #pragma GCC diagnostic ignored "-Wattributes"
 106:Drivers/CMSIS/Include/cmsis_gcc.h ****   __PACKED_STRUCT T_UINT32_READ { uint32_t v; };
 107:Drivers/CMSIS/Include/cmsis_gcc.h ****   #pragma GCC diagnostic pop
 108:Drivers/CMSIS/Include/cmsis_gcc.h ****   #define __UNALIGNED_UINT32_READ(addr)          (((const struct T_UINT32_READ *)(const void *)(add
 109:Drivers/CMSIS/Include/cmsis_gcc.h **** #endif
 110:Drivers/CMSIS/Include/cmsis_gcc.h **** #ifndef   __ALIGNED
 111:Drivers/CMSIS/Include/cmsis_gcc.h ****   #define __ALIGNED(x)                           __attribute__((aligned(x)))
 112:Drivers/CMSIS/Include/cmsis_gcc.h **** #endif
 113:Drivers/CMSIS/Include/cmsis_gcc.h **** #ifndef   __RESTRICT
 114:Drivers/CMSIS/Include/cmsis_gcc.h ****   #define __RESTRICT                             __restrict
 115:Drivers/CMSIS/Include/cmsis_gcc.h **** #endif
 116:Drivers/CMSIS/Include/cmsis_gcc.h **** 
 117:Drivers/CMSIS/Include/cmsis_gcc.h **** 
 118:Drivers/CMSIS/Include/cmsis_gcc.h **** /* ###########################  Core Function Access  ########################### */
 119:Drivers/CMSIS/Include/cmsis_gcc.h **** /** \ingroup  CMSIS_Core_FunctionInterface
 120:Drivers/CMSIS/Include/cmsis_gcc.h ****     \defgroup CMSIS_Core_RegAccFunctions CMSIS Core Register Access Functions
 121:Drivers/CMSIS/Include/cmsis_gcc.h ****   @{
 122:Drivers/CMSIS/Include/cmsis_gcc.h ****  */
 123:Drivers/CMSIS/Include/cmsis_gcc.h **** 
 124:Drivers/CMSIS/Include/cmsis_gcc.h **** /**
 125:Drivers/CMSIS/Include/cmsis_gcc.h ****   \brief   Enable IRQ Interrupts
 126:Drivers/CMSIS/Include/cmsis_gcc.h ****   \details Enables IRQ interrupts by clearing the I-bit in the CPSR.
 127:Drivers/CMSIS/Include/cmsis_gcc.h ****            Can only be executed in Privileged modes.
 128:Drivers/CMSIS/Include/cmsis_gcc.h ****  */
 129:Drivers/CMSIS/Include/cmsis_gcc.h **** __STATIC_FORCEINLINE void __enable_irq(void)
 130:Drivers/CMSIS/Include/cmsis_gcc.h **** {
 131:Drivers/CMSIS/Include/cmsis_gcc.h ****   __ASM volatile ("cpsie i" : : : "memory");
 132:Drivers/CMSIS/Include/cmsis_gcc.h **** }
 133:Drivers/CMSIS/Include/cmsis_gcc.h **** 
 134:Drivers/CMSIS/Include/cmsis_gcc.h **** 
 135:Drivers/CMSIS/Include/cmsis_gcc.h **** /**
 136:Drivers/CMSIS/Include/cmsis_gcc.h ****   \brief   Disable IRQ Interrupts
 137:Drivers/CMSIS/Include/cmsis_gcc.h ****   \details Disables IRQ interrupts by setting the I-bit in the CPSR.
 138:Drivers/CMSIS/Include/cmsis_gcc.h ****            Can only be executed in Privileged modes.
 139:Drivers/CMSIS/Include/cmsis_gcc.h ****  */
 140:Drivers/CMSIS/Include/cmsis_gcc.h **** __STATIC_FORCEINLINE void __disable_irq(void)
 268              		.loc 2 140 27 view .LVU57
 269              	.LBB5:
 141:Drivers/CMSIS/Include/cmsis_gcc.h **** {
 142:Drivers/CMSIS/Include/cmsis_gcc.h ****   __ASM volatile ("cpsid i" : : : "memory");
 270              		.loc 2 142 3 view .LVU58
 271              		.syntax unified
 272              	@ 142 "Drivers/CMSIS/Include/cmsis_gcc.h" 1
 273 0000 72B6     		cpsid i
 274              	@ 0 "" 2
 275              		.thumb
 276              		.syntax unified
 277              	.L18:
ARM GAS  C:\Users\ASUS\AppData\Local\Temp\ccNrKhPv.s 			page 12


 278              	.LBE5:
 279              	.LBE4:
 209:Core/Src/main.c ****   while (1)
 280              		.loc 1 209 3 discriminator 1 view .LVU59
 210:Core/Src/main.c ****   {
 211:Core/Src/main.c ****   }
 281              		.loc 1 211 3 discriminator 1 view .LVU60
 209:Core/Src/main.c ****   while (1)
 282              		.loc 1 209 9 discriminator 1 view .LVU61
 283 0002 FEE7     		b	.L18
 284              		.cfi_endproc
 285              	.LFE69:
 287              		.section	.text.SystemClock_Config,"ax",%progbits
 288              		.align	1
 289              		.global	SystemClock_Config
 290              		.syntax unified
 291              		.thumb
 292              		.thumb_func
 294              	SystemClock_Config:
 295              	.LFB68:
 168:Core/Src/main.c ****   RCC_OscInitTypeDef RCC_OscInitStruct = {0};
 296              		.loc 1 168 1 view -0
 297              		.cfi_startproc
 298              		@ args = 0, pretend = 0, frame = 64
 299              		@ frame_needed = 0, uses_anonymous_args = 0
 300 0000 00B5     		push	{lr}
 301              	.LCFI1:
 302              		.cfi_def_cfa_offset 4
 303              		.cfi_offset 14, -4
 304 0002 91B0     		sub	sp, sp, #68
 305              	.LCFI2:
 306              		.cfi_def_cfa_offset 72
 169:Core/Src/main.c ****   RCC_ClkInitTypeDef RCC_ClkInitStruct = {0};
 307              		.loc 1 169 3 view .LVU63
 169:Core/Src/main.c ****   RCC_ClkInitTypeDef RCC_ClkInitStruct = {0};
 308              		.loc 1 169 22 is_stmt 0 view .LVU64
 309 0004 2822     		movs	r2, #40
 310 0006 0021     		movs	r1, #0
 311 0008 06A8     		add	r0, sp, #24
 312 000a FFF7FEFF 		bl	memset
 313              	.LVL30:
 170:Core/Src/main.c **** 
 314              		.loc 1 170 3 is_stmt 1 view .LVU65
 170:Core/Src/main.c **** 
 315              		.loc 1 170 22 is_stmt 0 view .LVU66
 316 000e 0023     		movs	r3, #0
 317 0010 0193     		str	r3, [sp, #4]
 318 0012 0293     		str	r3, [sp, #8]
 319 0014 0393     		str	r3, [sp, #12]
 320 0016 0493     		str	r3, [sp, #16]
 321 0018 0593     		str	r3, [sp, #20]
 172:Core/Src/main.c ****   RCC_OscInitStruct.HSEState = RCC_HSE_ON;
 322              		.loc 1 172 3 is_stmt 1 view .LVU67
 172:Core/Src/main.c ****   RCC_OscInitStruct.HSEState = RCC_HSE_ON;
 323              		.loc 1 172 36 is_stmt 0 view .LVU68
 324 001a 0122     		movs	r2, #1
 325 001c 0692     		str	r2, [sp, #24]
ARM GAS  C:\Users\ASUS\AppData\Local\Temp\ccNrKhPv.s 			page 13


 173:Core/Src/main.c ****   RCC_OscInitStruct.HSEPredivValue = RCC_HSE_PREDIV_DIV1;
 326              		.loc 1 173 3 is_stmt 1 view .LVU69
 173:Core/Src/main.c ****   RCC_OscInitStruct.HSEPredivValue = RCC_HSE_PREDIV_DIV1;
 327              		.loc 1 173 30 is_stmt 0 view .LVU70
 328 001e 4FF48033 		mov	r3, #65536
 329 0022 0793     		str	r3, [sp, #28]
 174:Core/Src/main.c ****   RCC_OscInitStruct.HSIState = RCC_HSI_ON;
 330              		.loc 1 174 3 is_stmt 1 view .LVU71
 175:Core/Src/main.c ****   RCC_OscInitStruct.PLL.PLLState = RCC_PLL_ON;
 331              		.loc 1 175 3 view .LVU72
 175:Core/Src/main.c ****   RCC_OscInitStruct.PLL.PLLState = RCC_PLL_ON;
 332              		.loc 1 175 30 is_stmt 0 view .LVU73
 333 0024 0A92     		str	r2, [sp, #40]
 176:Core/Src/main.c ****   RCC_OscInitStruct.PLL.PLLSource = RCC_PLLSOURCE_HSE;
 334              		.loc 1 176 3 is_stmt 1 view .LVU74
 176:Core/Src/main.c ****   RCC_OscInitStruct.PLL.PLLSource = RCC_PLLSOURCE_HSE;
 335              		.loc 1 176 34 is_stmt 0 view .LVU75
 336 0026 0222     		movs	r2, #2
 337 0028 0D92     		str	r2, [sp, #52]
 177:Core/Src/main.c ****   RCC_OscInitStruct.PLL.PLLMUL = RCC_PLL_MUL9;
 338              		.loc 1 177 3 is_stmt 1 view .LVU76
 177:Core/Src/main.c ****   RCC_OscInitStruct.PLL.PLLMUL = RCC_PLL_MUL9;
 339              		.loc 1 177 35 is_stmt 0 view .LVU77
 340 002a 0E93     		str	r3, [sp, #56]
 178:Core/Src/main.c ****   if (HAL_RCC_OscConfig(&RCC_OscInitStruct) != HAL_OK)
 341              		.loc 1 178 3 is_stmt 1 view .LVU78
 178:Core/Src/main.c ****   if (HAL_RCC_OscConfig(&RCC_OscInitStruct) != HAL_OK)
 342              		.loc 1 178 32 is_stmt 0 view .LVU79
 343 002c 4FF4E013 		mov	r3, #1835008
 344 0030 0F93     		str	r3, [sp, #60]
 179:Core/Src/main.c ****   {
 345              		.loc 1 179 3 is_stmt 1 view .LVU80
 179:Core/Src/main.c ****   {
 346              		.loc 1 179 7 is_stmt 0 view .LVU81
 347 0032 06A8     		add	r0, sp, #24
 348 0034 FFF7FEFF 		bl	HAL_RCC_OscConfig
 349              	.LVL31:
 179:Core/Src/main.c ****   {
 350              		.loc 1 179 6 view .LVU82
 351 0038 80B9     		cbnz	r0, .L23
 184:Core/Src/main.c ****                               |RCC_CLOCKTYPE_PCLK1|RCC_CLOCKTYPE_PCLK2;
 352              		.loc 1 184 3 is_stmt 1 view .LVU83
 184:Core/Src/main.c ****                               |RCC_CLOCKTYPE_PCLK1|RCC_CLOCKTYPE_PCLK2;
 353              		.loc 1 184 31 is_stmt 0 view .LVU84
 354 003a 0F23     		movs	r3, #15
 355 003c 0193     		str	r3, [sp, #4]
 186:Core/Src/main.c ****   RCC_ClkInitStruct.AHBCLKDivider = RCC_SYSCLK_DIV1;
 356              		.loc 1 186 3 is_stmt 1 view .LVU85
 186:Core/Src/main.c ****   RCC_ClkInitStruct.AHBCLKDivider = RCC_SYSCLK_DIV1;
 357              		.loc 1 186 34 is_stmt 0 view .LVU86
 358 003e 0221     		movs	r1, #2
 359 0040 0291     		str	r1, [sp, #8]
 187:Core/Src/main.c ****   RCC_ClkInitStruct.APB1CLKDivider = RCC_HCLK_DIV2;
 360              		.loc 1 187 3 is_stmt 1 view .LVU87
 187:Core/Src/main.c ****   RCC_ClkInitStruct.APB1CLKDivider = RCC_HCLK_DIV2;
 361              		.loc 1 187 35 is_stmt 0 view .LVU88
 362 0042 0023     		movs	r3, #0
ARM GAS  C:\Users\ASUS\AppData\Local\Temp\ccNrKhPv.s 			page 14


 363 0044 0393     		str	r3, [sp, #12]
 188:Core/Src/main.c ****   RCC_ClkInitStruct.APB2CLKDivider = RCC_HCLK_DIV1;
 364              		.loc 1 188 3 is_stmt 1 view .LVU89
 188:Core/Src/main.c ****   RCC_ClkInitStruct.APB2CLKDivider = RCC_HCLK_DIV1;
 365              		.loc 1 188 36 is_stmt 0 view .LVU90
 366 0046 4FF48062 		mov	r2, #1024
 367 004a 0492     		str	r2, [sp, #16]
 189:Core/Src/main.c **** 
 368              		.loc 1 189 3 is_stmt 1 view .LVU91
 189:Core/Src/main.c **** 
 369              		.loc 1 189 36 is_stmt 0 view .LVU92
 370 004c 0593     		str	r3, [sp, #20]
 191:Core/Src/main.c ****   {
 371              		.loc 1 191 3 is_stmt 1 view .LVU93
 191:Core/Src/main.c ****   {
 372              		.loc 1 191 7 is_stmt 0 view .LVU94
 373 004e 01A8     		add	r0, sp, #4
 374 0050 FFF7FEFF 		bl	HAL_RCC_ClockConfig
 375              	.LVL32:
 191:Core/Src/main.c ****   {
 376              		.loc 1 191 6 view .LVU95
 377 0054 20B9     		cbnz	r0, .L24
 195:Core/Src/main.c **** 
 378              		.loc 1 195 1 view .LVU96
 379 0056 11B0     		add	sp, sp, #68
 380              	.LCFI3:
 381              		.cfi_remember_state
 382              		.cfi_def_cfa_offset 4
 383              		@ sp needed
 384 0058 5DF804FB 		ldr	pc, [sp], #4
 385              	.L23:
 386              	.LCFI4:
 387              		.cfi_restore_state
 181:Core/Src/main.c ****   }
 388              		.loc 1 181 5 is_stmt 1 view .LVU97
 389 005c FFF7FEFF 		bl	Error_Handler
 390              	.LVL33:
 391              	.L24:
 193:Core/Src/main.c ****   }
 392              		.loc 1 193 5 view .LVU98
 393 0060 FFF7FEFF 		bl	Error_Handler
 394              	.LVL34:
 395              		.cfi_endproc
 396              	.LFE68:
 398              		.section	.text.main,"ax",%progbits
 399              		.align	1
 400              		.global	main
 401              		.syntax unified
 402              		.thumb
 403              		.thumb_func
 405              	main:
 406              	.LFB67:
 113:Core/Src/main.c ****   /* USER CODE BEGIN 1 */
 407              		.loc 1 113 1 view -0
 408              		.cfi_startproc
 409              		@ Volatile: function does not return.
 410              		@ args = 0, pretend = 0, frame = 0
ARM GAS  C:\Users\ASUS\AppData\Local\Temp\ccNrKhPv.s 			page 15


 411              		@ frame_needed = 0, uses_anonymous_args = 0
 412 0000 08B5     		push	{r3, lr}
 413              	.LCFI5:
 414              		.cfi_def_cfa_offset 8
 415              		.cfi_offset 3, -8
 416              		.cfi_offset 14, -4
 118:Core/Src/main.c **** 
 417              		.loc 1 118 3 view .LVU100
 418 0002 FFF7FEFF 		bl	HAL_Init
 419              	.LVL35:
 124:Core/Src/main.c **** 
 420              		.loc 1 124 3 view .LVU101
 421 0006 FFF7FEFF 		bl	SystemClock_Config
 422              	.LVL36:
 130:Core/Src/main.c ****   
 423              		.loc 1 130 3 view .LVU102
 424 000a FFF7FEFF 		bl	MX_GPIO_Init
 425              	.LVL37:
 133:Core/Src/main.c ****   Motor_Object_Init(&Motor);
 426              		.loc 1 133 3 view .LVU103
 427 000e 4820     		movs	r0, #72
 428 0010 FFF7FEFF 		bl	DWT_Init
 429              	.LVL38:
 134:Core/Src/main.c ****   PID_Init(&PID);
 430              		.loc 1 134 3 view .LVU104
 431 0014 1B48     		ldr	r0, .L28
 432 0016 FFF7FEFF 		bl	Motor_Object_Init
 433              	.LVL39:
 135:Core/Src/main.c ****   DWT_CNT = 0;
 434              		.loc 1 135 3 view .LVU105
 435 001a 1B48     		ldr	r0, .L28+4
 436 001c FFF7FEFF 		bl	PID_Init
 437              	.LVL40:
 136:Core/Src/main.c ****   dt = 0.0f;
 438              		.loc 1 136 3 view .LVU106
 136:Core/Src/main.c ****   dt = 0.0f;
 439              		.loc 1 136 11 is_stmt 0 view .LVU107
 440 0020 1A4B     		ldr	r3, .L28+8
 441 0022 0022     		movs	r2, #0
 442 0024 1A60     		str	r2, [r3]
 137:Core/Src/main.c ****   t = 0.0f;
 443              		.loc 1 137 3 is_stmt 1 view .LVU108
 137:Core/Src/main.c ****   t = 0.0f;
 444              		.loc 1 137 6 is_stmt 0 view .LVU109
 445 0026 0023     		movs	r3, #0
 446 0028 194A     		ldr	r2, .L28+12
 447 002a 1360     		str	r3, [r2]	@ float
 138:Core/Src/main.c ****   velocityRef = 0.0f;
 448              		.loc 1 138 3 is_stmt 1 view .LVU110
 138:Core/Src/main.c ****   velocityRef = 0.0f;
 449              		.loc 1 138 5 is_stmt 0 view .LVU111
 450 002c 194A     		ldr	r2, .L28+16
 451 002e 1360     		str	r3, [r2]	@ float
 139:Core/Src/main.c ****   /* USER CODE END 2 */
 452              		.loc 1 139 3 is_stmt 1 view .LVU112
 139:Core/Src/main.c ****   /* USER CODE END 2 */
 453              		.loc 1 139 15 is_stmt 0 view .LVU113
ARM GAS  C:\Users\ASUS\AppData\Local\Temp\ccNrKhPv.s 			page 16


 454 0030 194A     		ldr	r2, .L28+20
 455 0032 1360     		str	r3, [r2]	@ float
 456              	.L26:
 142:Core/Src/main.c ****   {   
 457              		.loc 1 142 3 is_stmt 1 discriminator 1 view .LVU114
 144:Core/Src/main.c ****       t += dt;
 458              		.loc 1 144 7 discriminator 1 view .LVU115
 144:Core/Src/main.c ****       t += dt;
 459              		.loc 1 144 12 is_stmt 0 discriminator 1 view .LVU116
 460 0034 1548     		ldr	r0, .L28+8
 461 0036 FFF7FEFF 		bl	DWT_GetDeltaT
 462              	.LVL41:
 463 003a 0146     		mov	r1, r0
 144:Core/Src/main.c ****       t += dt;
 464              		.loc 1 144 10 discriminator 1 view .LVU117
 465 003c 144D     		ldr	r5, .L28+12
 466 003e 2860     		str	r0, [r5]	@ float
 145:Core/Src/main.c **** 
 467              		.loc 1 145 7 is_stmt 1 discriminator 1 view .LVU118
 145:Core/Src/main.c **** 
 468              		.loc 1 145 9 is_stmt 0 discriminator 1 view .LVU119
 469 0040 144C     		ldr	r4, .L28+16
 470 0042 2068     		ldr	r0, [r4]	@ float
 471 0044 FFF7FEFF 		bl	__aeabi_fadd
 472              	.LVL42:
 473 0048 2060     		str	r0, [r4]	@ float
 147:Core/Src/main.c ****       Motor.Velocity = Get_Motor_Velocity(&Motor);
 474              		.loc 1 147 7 is_stmt 1 discriminator 1 view .LVU120
 147:Core/Src/main.c ****       Motor.Velocity = Get_Motor_Velocity(&Motor);
 475              		.loc 1 147 21 is_stmt 0 discriminator 1 view .LVU121
 476 004a 0E4C     		ldr	r4, .L28
 477 004c 2046     		mov	r0, r4
 478 004e FFF7FEFF 		bl	Get_Motor_Current
 479              	.LVL43:
 147:Core/Src/main.c ****       Motor.Velocity = Get_Motor_Velocity(&Motor);
 480              		.loc 1 147 19 discriminator 1 view .LVU122
 481 0052 0D4E     		ldr	r6, .L28+4
 482 0054 B061     		str	r0, [r6, #24]	@ float
 148:Core/Src/main.c ****       Motor.Angle = Get_Motor_Angle(&Motor);
 483              		.loc 1 148 7 is_stmt 1 discriminator 1 view .LVU123
 148:Core/Src/main.c ****       Motor.Angle = Get_Motor_Angle(&Motor);
 484              		.loc 1 148 24 is_stmt 0 discriminator 1 view .LVU124
 485 0056 2046     		mov	r0, r4
 486 0058 FFF7FEFF 		bl	Get_Motor_Velocity
 487              	.LVL44:
 148:Core/Src/main.c ****       Motor.Angle = Get_Motor_Angle(&Motor);
 488              		.loc 1 148 22 discriminator 1 view .LVU125
 489 005c A060     		str	r0, [r4, #8]	@ float
 149:Core/Src/main.c ****       velocityRef = 10.0f;
 490              		.loc 1 149 7 is_stmt 1 discriminator 1 view .LVU126
 149:Core/Src/main.c ****       velocityRef = 10.0f;
 491              		.loc 1 149 21 is_stmt 0 discriminator 1 view .LVU127
 492 005e 2046     		mov	r0, r4
 493 0060 FFF7FEFF 		bl	Get_Motor_Angle
 494              	.LVL45:
 149:Core/Src/main.c ****       velocityRef = 10.0f;
 495              		.loc 1 149 19 discriminator 1 view .LVU128
ARM GAS  C:\Users\ASUS\AppData\Local\Temp\ccNrKhPv.s 			page 17


 496 0064 E060     		str	r0, [r4, #12]	@ float
 150:Core/Src/main.c ****       PID.Input = PID_Calculate(velocityRef);
 497              		.loc 1 150 7 is_stmt 1 discriminator 1 view .LVU129
 150:Core/Src/main.c ****       PID.Input = PID_Calculate(velocityRef);
 498              		.loc 1 150 19 is_stmt 0 discriminator 1 view .LVU130
 499 0066 0D48     		ldr	r0, .L28+24
 500 0068 0B4B     		ldr	r3, .L28+20
 501 006a 1860     		str	r0, [r3]	@ float
 151:Core/Src/main.c **** 
 502              		.loc 1 151 7 is_stmt 1 discriminator 1 view .LVU131
 151:Core/Src/main.c **** 
 503              		.loc 1 151 19 is_stmt 0 discriminator 1 view .LVU132
 504 006c FFF7FEFF 		bl	PID_Calculate
 505              	.LVL46:
 506 0070 0146     		mov	r1, r0
 151:Core/Src/main.c **** 
 507              		.loc 1 151 17 discriminator 1 view .LVU133
 508 0072 7061     		str	r0, [r6, #20]	@ float
 153:Core/Src/main.c **** 
 509              		.loc 1 153 7 is_stmt 1 discriminator 1 view .LVU134
 510 0074 2A68     		ldr	r2, [r5]	@ float
 511 0076 2046     		mov	r0, r4
 512 0078 FFF7FEFF 		bl	Motor_Simulation
 513              	.LVL47:
 158:Core/Src/main.c ****   }
 514              		.loc 1 158 7 discriminator 1 view .LVU135
 515 007c 0120     		movs	r0, #1
 516 007e FFF7FEFF 		bl	HAL_Delay
 517              	.LVL48:
 142:Core/Src/main.c ****   {   
 518              		.loc 1 142 9 discriminator 1 view .LVU136
 519 0082 D7E7     		b	.L26
 520              	.L29:
 521              		.align	2
 522              	.L28:
 523 0084 00000000 		.word	Motor
 524 0088 00000000 		.word	PID
 525 008c 00000000 		.word	DWT_CNT
 526 0090 00000000 		.word	dt
 527 0094 00000000 		.word	t
 528 0098 00000000 		.word	velocityRef
 529 009c 00002041 		.word	1092616192
 530              		.cfi_endproc
 531              	.LFE67:
 533              		.global	t
 534              		.section	.bss.t,"aw",%nobits
 535              		.align	2
 538              	t:
 539 0000 00000000 		.space	4
 540              		.global	dt
 541              		.section	.bss.dt,"aw",%nobits
 542              		.align	2
 545              	dt:
 546 0000 00000000 		.space	4
 547              		.global	DWT_CNT
 548              		.section	.bss.DWT_CNT,"aw",%nobits
 549              		.align	2
ARM GAS  C:\Users\ASUS\AppData\Local\Temp\ccNrKhPv.s 			page 18


 552              	DWT_CNT:
 553 0000 00000000 		.space	4
 554              		.global	PID
 555              		.section	.bss.PID,"aw",%nobits
 556              		.align	2
 559              	PID:
 560 0000 00000000 		.space	28
 560      00000000 
 560      00000000 
 560      00000000 
 560      00000000 
 561              		.global	Motor
 562              		.section	.bss.Motor,"aw",%nobits
 563              		.align	2
 566              	Motor:
 567 0000 00000000 		.space	80
 567      00000000 
 567      00000000 
 567      00000000 
 567      00000000 
 568              		.global	velocityRef
 569              		.section	.bss.velocityRef,"aw",%nobits
 570              		.align	2
 573              	velocityRef:
 574 0000 00000000 		.space	4
 575              		.text
 576              	.Letext0:
 577              		.file 3 "d:\\rw\\ozone\\mingw64\\arm-none-eabi\\include\\machine\\_default_types.h"
 578              		.file 4 "d:\\rw\\ozone\\mingw64\\arm-none-eabi\\include\\sys\\_stdint.h"
 579              		.file 5 "Drivers/STM32F1xx_HAL_Driver/Inc/stm32f1xx_hal_def.h"
 580              		.file 6 "Drivers/STM32F1xx_HAL_Driver/Inc/stm32f1xx_hal_rcc.h"
 581              		.file 7 "Drivers/STM32F1xx_HAL_Driver/Inc/stm32f1xx_hal_rcc_ex.h"
 582              		.file 8 "Motor_Simulation/motor_simulation.h"
 583              		.file 9 "Drivers/STM32F1xx_HAL_Driver/Inc/stm32f1xx_hal.h"
 584              		.file 10 "BSP/bsp_dwt.h"
 585              		.file 11 "Core/Inc/gpio.h"
 586              		.file 12 "<built-in>"
ARM GAS  C:\Users\ASUS\AppData\Local\Temp\ccNrKhPv.s 			page 19

